target datalayout = "e-m:e-p270:32:32-p271:32:32-p272:64:64-i64:64-i128:128-f80:128-n8:16:32:64-S128"
target triple = "x86_64-pc-linux-gnu"

%struct.AVFilterPad = type { ptr, i32, i32, %union.anon, ptr, ptr, ptr }
%union.anon = type { ptr }
%struct.AVFilterContext = type { ptr, ptr, ptr, ptr, ptr, i32, ptr, ptr, i32, ptr, ptr, i32, i32, ptr, ptr, ptr, ptr, i32, ptr, i32, i32 }
%struct.SelectContext = type { ptr, ptr, ptr, [40 x double], i32, i32, [4 x i64], [4 x i64], i32, ptr, double, ptr, double, i32, i32 }
%struct.AVFilter = type { ptr, ptr, ptr, ptr, ptr, i32 }

@.str.23 = private unnamed_addr constant [37 x i8] c"Error while parsing expression '%s'\0A\00", align 1
@.str.24 = private unnamed_addr constant [6 x i8] c"scene\00", align 1
@.str.25 = private unnamed_addr constant [9 x i8] c"output%d\00", align 1

; Function Attrs: cold nounwind optsize uwtable
define internal i32 @init(ptr noundef %0) #0 {
  %2 = alloca i32, align 4
  %3 = alloca ptr, align 8
  %4 = alloca ptr, align 8
  %5 = alloca i32, align 4
  %6 = alloca i32, align 4
  %7 = alloca i32, align 4
  %8 = alloca %struct.AVFilterPad, align 8
  store ptr %0, ptr %3, align 8, !tbaa !4
  call void @llvm.lifetime.start.p0(i64 8, ptr %4) #12
  %9 = load ptr, ptr %3, align 8, !tbaa !4
  %10 = getelementptr inbounds nuw %struct.AVFilterContext, ptr %9, i32 0, i32 9
  %11 = load ptr, ptr %10, align 8, !tbaa !9
  store ptr %11, ptr %4, align 8, !tbaa !22
  call void @llvm.lifetime.start.p0(i64 4, ptr %5) #12
  call void @llvm.lifetime.start.p0(i64 4, ptr %6) #12
  %12 = load ptr, ptr %4, align 8, !tbaa !22
  %13 = getelementptr inbounds nuw %struct.SelectContext, ptr %12, i32 0, i32 2
  %14 = load ptr, ptr %4, align 8, !tbaa !22
  %15 = getelementptr inbounds nuw %struct.SelectContext, ptr %14, i32 0, i32 1
  %16 = load ptr, ptr %15, align 8, !tbaa !105
  %17 = load ptr, ptr %3, align 8, !tbaa !4
  %18 = call i32 @av_expr_parse(ptr noundef %13, ptr noundef %16, ptr noundef @var_names, ptr noundef null, ptr noundef null, ptr noundef null, ptr noundef null, i32 noundef 0, ptr noundef %17)
  store i32 %18, ptr %6, align 4, !tbaa !24
  %19 = icmp slt i32 %18, 0
  br i1 %19, label %20, label %26

20:                                               ; preds = %1
  %21 = load ptr, ptr %3, align 8, !tbaa !4
  %22 = load ptr, ptr %4, align 8, !tbaa !22
  %23 = getelementptr inbounds nuw %struct.SelectContext, ptr %22, i32 0, i32 1
  %24 = load ptr, ptr %23, align 8, !tbaa !105
  call void (ptr, i32, ptr, ...) @av_log(ptr noundef %21, i32 noundef 16, ptr noundef @.str.23, ptr noundef %24)
  %25 = load i32, ptr %6, align 4, !tbaa !24
  store i32 %25, ptr %2, align 4
  store i32 1, ptr %7, align 4
  br label %75

26:                                               ; preds = %1
  %27 = load ptr, ptr %4, align 8, !tbaa !22
  %28 = getelementptr inbounds nuw %struct.SelectContext, ptr %27, i32 0, i32 1
  %29 = load ptr, ptr %28, align 8, !tbaa !105
  %30 = call ptr @strstr(ptr noundef %29, ptr noundef @.str.24) #15
  %31 = icmp ne ptr %30, null
  %32 = xor i1 %31, true
  %33 = xor i1 %32, true
  %34 = zext i1 %33 to i32
  %35 = load ptr, ptr %4, align 8, !tbaa !22
  %36 = getelementptr inbounds nuw %struct.SelectContext, ptr %35, i32 0, i32 8
  store i32 %34, ptr %36, align 8, !tbaa !25
  store i32 0, ptr %5, align 4, !tbaa !24
  br label %37

37:                                               ; preds = %71, %26
  %38 = load i32, ptr %5, align 4, !tbaa !24
  %39 = load ptr, ptr %4, align 8, !tbaa !22
  %40 = getelementptr inbounds nuw %struct.SelectContext, ptr %39, i32 0, i32 14
  %41 = load i32, ptr %40, align 4, !tbaa !91
  %42 = icmp slt i32 %38, %41
  br i1 %42, label %43, label %74

43:                                               ; preds = %37
  call void @llvm.lifetime.start.p0(i64 48, ptr %8) #12
  call void @llvm.memset.p0.i64(ptr align 8 %8, i8 0, i64 48, i1 false)
  %44 = load i32, ptr %5, align 4, !tbaa !24
  %45 = call ptr (ptr, ...) @av_asprintf(ptr noundef @.str.25, i32 noundef %44)
  %46 = getelementptr inbounds nuw %struct.AVFilterPad, ptr %8, i32 0, i32 0
  store ptr %45, ptr %46, align 8, !tbaa !106
  %47 = getelementptr inbounds nuw %struct.AVFilterPad, ptr %8, i32 0, i32 0
  %48 = load ptr, ptr %47, align 8, !tbaa !106
  %49 = icmp ne ptr %48, null
  br i1 %49, label %51, label %50

50:                                               ; preds = %43
  store i32 -12, ptr %2, align 4
  store i32 1, ptr %7, align 4
  br label %68

51:                                               ; preds = %43
  %52 = load ptr, ptr %3, align 8, !tbaa !4
  %53 = getelementptr inbounds nuw %struct.AVFilterContext, ptr %52, i32 0, i32 1
  %54 = load ptr, ptr %53, align 8, !tbaa !108
  %55 = getelementptr inbounds nuw %struct.AVFilter, ptr %54, i32 0, i32 2
  %56 = load ptr, ptr %55, align 8, !tbaa !109
  %57 = getelementptr inbounds %struct.AVFilterPad, ptr %56, i64 0
  %58 = getelementptr inbounds nuw %struct.AVFilterPad, ptr %57, i32 0, i32 1
  %59 = load i32, ptr %58, align 8, !tbaa !111
  %60 = getelementptr inbounds nuw %struct.AVFilterPad, ptr %8, i32 0, i32 1
  store i32 %59, ptr %60, align 8, !tbaa !111
  %61 = getelementptr inbounds nuw %struct.AVFilterPad, ptr %8, i32 0, i32 5
  store ptr @request_frame, ptr %61, align 8, !tbaa !112
  %62 = load ptr, ptr %3, align 8, !tbaa !4
  %63 = call i32 @ff_append_outpad_free_name(ptr noundef %62, ptr noundef %8)
  store i32 %63, ptr %6, align 4, !tbaa !24
  %64 = icmp slt i32 %63, 0
  br i1 %64, label %65, label %67

65:                                               ; preds = %51
  %66 = load i32, ptr %6, align 4, !tbaa !24
  store i32 %66, ptr %2, align 4
  store i32 1, ptr %7, align 4
  br label %68

67:                                               ; preds = %51
  store i32 0, ptr %7, align 4
  br label %68

68:                                               ; preds = %67, %65, %50
  call void @llvm.lifetime.end.p0(i64 48, ptr %8) #12
  %69 = load i32, ptr %7, align 4
  switch i32 %69, label %75 [
    i32 0, label %70
  ]

70:                                               ; preds = %68
  br label %71

71:                                               ; preds = %70
  %72 = load i32, ptr %5, align 4, !tbaa !24
  %73 = add nsw i32 %72, 1
  store i32 %73, ptr %5, align 4, !tbaa !24
  br label %37, !llvm.loop !113

74:                                               ; preds = %37
  store i32 0, ptr %2, align 4
  store i32 1, ptr %7, align 4
  br label %75

75:                                               ; preds = %74, %68, %20
  call void @llvm.lifetime.end.p0(i64 4, ptr %6) #12
  call void @llvm.lifetime.end.p0(i64 4, ptr %5) #12
  call void @llvm.lifetime.end.p0(i64 8, ptr %4) #12
  %76 = load i32, ptr %2, align 4
  ret i32 %76
}