; Function Attrs: cold nounwind optsize uwtable
define internal fastcc range(i32 -2147483648, 1) i32 @init(ptr noundef %0) unnamed_addr #0 {
  %2 = alloca %struct.AVFilterPad, align 8
  %3 = getelementptr inbounds nuw i8, ptr %0, i64 72
  %4 = load ptr, ptr %3, align 8, !tbaa !4
  %5 = getelementptr inbounds nuw i8, ptr %4, i64 16
  %6 = getelementptr inbounds nuw i8, ptr %4, i64 8
  %7 = load ptr, ptr %6, align 8, !tbaa !86
  %8 = tail call i32 @av_expr_parse(ptr noundef nonnull %5, ptr noundef %7, ptr noundef nonnull @var_names, ptr noundef null, ptr noundef null, ptr noundef null, ptr noundef null, i32 noundef 0, ptr noundef %0) #11
  %9 = icmp slt i32 %8, 0
  %10 = load ptr, ptr %6, align 8, !tbaa !86
  br i1 %9, label %11, label %12

11:                                               ; preds = %1
  tail call void (ptr, i32, ptr, ...) @av_log(ptr noundef nonnull %0, i32 noundef 16, ptr noundef nonnull @.str.23, ptr noundef %10) #11
  br label %.loopexit

12:                                               ; preds = %1
  %13 = tail call ptr @strstr(ptr noundef nonnull dereferenceable(1) %10, ptr noundef nonnull dereferenceable(1) @.str.24) #13
  %14 = icmp ne ptr %13, null
  %15 = zext i1 %14 to i32
  %16 = getelementptr inbounds nuw i8, ptr %4, i64 416
  store i32 %15, ptr %16, align 8, !tbaa !20
  %17 = getelementptr inbounds nuw i8, ptr %4, i64 460
  %18 = load i32, ptr %17, align 4, !tbaa !72
  %19 = icmp sgt i32 %18, 0
  br i1 %19, label %.lr.ph, label %.loopexit

.lr.ph:                                           ; preds = %12
  %20 = getelementptr inbounds nuw i8, ptr %0, i64 8
  %21 = getelementptr inbounds nuw i8, ptr %2, i64 8
  %22 = getelementptr inbounds nuw i8, ptr %2, i64 32
  br label %27

23:                                               ; preds = %29
  %24 = add nuw nsw i32 %.01724, 1
  %25 = load i32, ptr %17, align 4, !tbaa !72
  %26 = icmp slt i32 %24, %25
  br i1 %26, label %27, label %.loopexit, !llvm.loop !87

27:                                               ; preds = %.lr.ph, %23
  %.01724 = phi i32 [ 0, %.lr.ph ], [ %24, %23 ]
  call void @llvm.lifetime.start.p0(i64 48, ptr nonnull %2) #11
  call void @llvm.memset.p0.i64(ptr noundef nonnull align 8 dereferenceable(48) %2, i8 0, i64 48, i1 false)
  %28 = call ptr (ptr, ...) @av_asprintf(ptr noundef nonnull @.str.25, i32 noundef %.01724) #11
  store ptr %28, ptr %2, align 8, !tbaa !88
  %.not = icmp eq ptr %28, null
  br i1 %.not, label %.thread, label %29

.thread:                                          ; preds = %27
  call void @llvm.lifetime.end.p0(i64 48, ptr nonnull %2) #11
  br label %.loopexit

29:                                               ; preds = %27
  %30 = load ptr, ptr %20, align 8, !tbaa !90
  %31 = getelementptr inbounds nuw i8, ptr %30, i64 16
  %32 = load ptr, ptr %31, align 8, !tbaa !91
  %33 = getelementptr inbounds nuw i8, ptr %32, i64 8
  %34 = load i32, ptr %33, align 8, !tbaa !93
  store i32 %34, ptr %21, align 8, !tbaa !93
  store ptr @request_frame, ptr %22, align 8, !tbaa !94
  %35 = call i32 @ff_append_outpad_free_name(ptr noundef nonnull %0, ptr noundef nonnull %2) #11
  %36 = icmp sgt i32 %35, -1
  call void @llvm.lifetime.end.p0(i64 48, ptr nonnull %2) #11
  br i1 %36, label %23, label %.loopexit

.loopexit:                                        ; preds = %29, %23, %12, %.thread, %11
  %.018 = phi i32 [ %8, %11 ], [ -12, %.thread ], [ 0, %12 ], [ %35, %29 ], [ 0, %23 ]
  ret i32 %.018
}